; Function Attrs: mustprogress uwtable
define hidden noundef i32 @_ZN2cv12FilterEngine5startERKNS_5Size_IiEES4_RKNS_6Point_IiEE(ptr noundef nonnull align 8 dereferenceable(304) %0, ptr nocapture noundef nonnull readonly align 4 dereferenceable(8) %1, ptr nocapture noundef nonnull readonly align 4 dereferenceable(8) %2, ptr nocapture noundef nonnull readonly align 4 dereferenceable(8) %3) unnamed_addr #3 align 2 personality ptr @__gxx_personality_v0 {
  %5 = alloca %"class.cv::utils::trace::details::Region", align 8
  %6 = alloca %"class.std::__cxx11::basic_string", align 8
  %7 = alloca %"class.std::allocator.18", align 1
  %8 = alloca %"class.std::__cxx11::basic_string", align 8
  %9 = alloca %"class.std::allocator.18", align 1
  call void @_ZN2cv5utils5trace7details6RegionC1ERKNS3_21LocationStaticStorageE(ptr noundef nonnull align 8 dereferenceable(12) %5, ptr noundef nonnull align 8 dereferenceable(32) @_ZZN2cv12FilterEngine5startERKNS_5Size_IiEES4_RKNS_6Point_IiEEE25__cv_trace_location_fn168)
  %10 = load i32, ptr %2, align 4
  %11 = icmp slt i32 %10, 1
  %12 = getelementptr inbounds i8, ptr %2, i64 4
  %13 = load i32, ptr %12, align 4
  %14 = icmp slt i32 %13, 1
  %15 = select i1 %11, i1 true, i1 %14
  br i1 %15, label %18, label %26

16:                                               ; preds = %41
  %17 = landingpad { ptr, i32 }
          cleanup
  br label %50

18:                                               ; preds = %4
  call void @_ZNSaIcEC1Ev(ptr noundef nonnull align 1 dereferenceable(1) %7) #25
  invoke void @_ZNSt7__cxx1112basic_stringIcSt11char_traitsIcESaIcEEC1EPKcRKS3_(ptr noundef nonnull align 8 dereferenceable(32) %6, ptr noundef nonnull @.str.24, ptr noundef nonnull align 1 dereferenceable(1) %7)
          to label %19 unwind label %21

19:                                               ; preds = %18
  invoke void @_ZN2cv5errorEiRKNSt7__cxx1112basic_stringIcSt11char_traitsIcESaIcEEEPKcS9_i(i32 noundef -215, ptr noundef nonnull align 8 dereferenceable(32) %6, ptr noundef nonnull @__func__._ZN2cv12FilterEngine5startERKNS_5Size_IiEES4_RKNS_6Point_IiEE, ptr noundef nonnull @.str.19, i32 noundef 170) #26
          to label %20 unwind label %23

20:                                               ; preds = %19
  unreachable

21:                                               ; preds = %18
  %22 = landingpad { ptr, i32 }
          cleanup
  br label %25

23:                                               ; preds = %19
  %24 = landingpad { ptr, i32 }
          cleanup
  call void @_ZNSt7__cxx1112basic_stringIcSt11char_traitsIcESaIcEED1Ev(ptr noundef nonnull align 8 dereferenceable(32) %6) #25
  br label %25

25:                                               ; preds = %23, %21
  %.pn11 = phi { ptr, i32 } [ %24, %23 ], [ %22, %21 ]
  call void @_ZNSaIcED1Ev(ptr noundef nonnull align 1 dereferenceable(1) %7) #25
  br label %50

26:                                               ; preds = %4
  %27 = load i32, ptr %1, align 4
  %28 = icmp slt i32 %27, 1
  %29 = getelementptr inbounds i8, ptr %1, i64 4
  %30 = load i32, ptr %29, align 4
  %31 = icmp slt i32 %30, 1
  %32 = select i1 %28, i1 true, i1 %31
  br i1 %32, label %33, label %41

33:                                               ; preds = %26
  call void @_ZNSaIcEC1Ev(ptr noundef nonnull align 1 dereferenceable(1) %9) #25
  invoke void @_ZNSt7__cxx1112basic_stringIcSt11char_traitsIcESaIcEEC1EPKcRKS3_(ptr noundef nonnull align 8 dereferenceable(32) %8, ptr noundef nonnull @.str.25, ptr noundef nonnull align 1 dereferenceable(1) %9)
          to label %34 unwind label %36

34:                                               ; preds = %33
  invoke void @_ZN2cv5errorEiRKNSt7__cxx1112basic_stringIcSt11char_traitsIcESaIcEEEPKcS9_i(i32 noundef -215, ptr noundef nonnull align 8 dereferenceable(32) %8, ptr noundef nonnull @__func__._ZN2cv12FilterEngine5startERKNS_5Size_IiEES4_RKNS_6Point_IiEE, ptr noundef nonnull @.str.19, i32 noundef 171) #26
          to label %35 unwind label %38

35:                                               ; preds = %34
  unreachable

36:                                               ; preds = %33
  %37 = landingpad { ptr, i32 }
          cleanup
  br label %40

38:                                               ; preds = %34
  %39 = landingpad { ptr, i32 }
          cleanup
  call void @_ZNSt7__cxx1112basic_stringIcSt11char_traitsIcESaIcEED1Ev(ptr noundef nonnull align 8 dereferenceable(32) %8) #25
  br label %40

40:                                               ; preds = %38, %36
  %.pn = phi { ptr, i32 } [ %39, %38 ], [ %37, %36 ]
  call void @_ZNSaIcED1Ev(ptr noundef nonnull align 1 dereferenceable(1) %9) #25
  br label %50

41:                                               ; preds = %26
  %42 = invoke noundef i32 @_ZN2cv12cpu_baseline19FilterEngine__startERNS_12FilterEngineERKNS_5Size_IiEES6_RKNS_6Point_IiEE(ptr noundef nonnull align 8 dereferenceable(304) %0, ptr noundef nonnull align 4 dereferenceable(8) %1, ptr noundef nonnull align 4 dereferenceable(8) %2, ptr noundef nonnull align 4 dereferenceable(8) %3)
          to label %43 unwind label %16

43:                                               ; preds = %41
  %44 = getelementptr inbounds i8, ptr %5, i64 8
  %45 = load i32, ptr %44, align 8
  %.not.i = icmp eq i32 %45, 0
  br i1 %.not.i, label %_ZN2cv5utils5trace7details6RegionD2Ev.exit, label %46

46:                                               ; preds = %43
  invoke void @_ZN2cv5utils5trace7details6Region7destroyEv(ptr noundef nonnull align 8 dereferenceable(12) %5)
          to label %_ZN2cv5utils5trace7details6RegionD2Ev.exit unwind label %47

47:                                               ; preds = %46
  %48 = landingpad { ptr, i32 }
          catch ptr null
  %49 = extractvalue { ptr, i32 } %48, 0
  call void @__clang_call_terminate(ptr %49) #27
  unreachable

_ZN2cv5utils5trace7details6RegionD2Ev.exit:       ; preds = %43, %46
  ret i32 %42

50:                                               ; preds = %40, %25, %16
  %.pn11.pn = phi { ptr, i32 } [ %.pn11, %25 ], [ %.pn, %40 ], [ %17, %16 ]
  call void @_ZN2cv5utils5trace7details6RegionD2Ev(ptr noundef nonnull align 8 dereferenceable(12) %5) #25
  resume { ptr, i32 } %.pn11.pn
}